target datalayout = "e-m:e-p270:32:32-p271:32:32-p272:64:64-i64:64-i128:128-f80:128-n8:16:32:64-S128"
target triple = "x86_64-pc-linux-gnu"

%struct.randpkt_example = type { ptr, ptr, i32, i32, ptr, i32, ptr, i32, ptr, ptr, i32 }
%struct.wtap_rec = type { i32, i32, i32, %struct.nstime_t, i32, %struct.nstime_t, i8, %union.anon, ptr, i8, %struct.Buffer, %struct.Buffer }
%struct.nstime_t = type { i64, i32 }
%union.anon = type { %struct.wtap_packet_header }
%struct.wtap_packet_header = type { i32, i32, i32, i32, %union.wtap_pseudo_header }
%union.wtap_pseudo_header = type { %struct.erf_mc_phdr }
%struct.erf_mc_phdr = type { %struct.erf_phdr, [16 x %struct.erf_ehdr], %union.anon.1 }
%struct.erf_phdr = type { i64, i8, i8, i16, i16, i16 }
%struct.erf_ehdr = type { i64 }
%union.anon.1 = type { i32 }
%struct.Buffer = type { ptr, i64, i64, i64 }

@pkt_rand = hidden global ptr null, align 8
@.str.1 = private unnamed_addr constant [3 x i8] c"%s\00", align 1

; Function Attrs: alwaysinline nounwind
define internal ptr @memcpy.inline(ptr noalias %0, ptr noalias %1, i64 %2) #7 {
  %4 = alloca ptr, align 8
  %5 = alloca ptr, align 8
  %6 = alloca i64, align 8
  store ptr %0, ptr %4, align 8
  store ptr %1, ptr %5, align 8
  store i64 %2, ptr %6, align 8
  %7 = load ptr, ptr %4, align 8
  %8 = load ptr, ptr %5, align 8
  %9 = load i64, ptr %6, align 8
  %10 = load ptr, ptr %4, align 8
  %11 = call i64 @llvm.objectsize.i64.p0(ptr %10, i1 false, i1 true, i1 true)
  %12 = call ptr @__memcpy_chk(ptr noundef %7, ptr noundef %8, i64 noundef %9, i64 noundef %11) #13
  ret ptr %12
}

; Function Attrs: null_pointer_is_valid sspstrong uwtable
define hidden void @randpkt_loop(ptr noundef %0, i64 noundef %1, i64 noundef %2) #1 {
  %4 = alloca ptr, align 8
  %5 = alloca i64, align 8
  %6 = alloca i64, align 8
  %7 = alloca i32, align 4
  %8 = alloca i32, align 4
  %9 = alloca i32, align 4
  %10 = alloca i32, align 4
  %11 = alloca i32, align 4
  %12 = alloca ptr, align 8
  %13 = alloca ptr, align 8
  %14 = alloca ptr, align 8
  %15 = alloca ptr, align 8
  %16 = alloca i64, align 8
  %17 = alloca i64, align 8
  %18 = alloca ptr, align 8
  %19 = alloca ptr, align 8
  store ptr %0, ptr %4, align 8
  store i64 %1, ptr %5, align 8
  store i64 %2, ptr %6, align 8
  call void @llvm.lifetime.start.p0(i64 4, ptr %7) #13
  call void @llvm.lifetime.start.p0(i64 4, ptr %8) #13
  call void @llvm.lifetime.start.p0(i64 4, ptr %9) #13
  call void @llvm.lifetime.start.p0(i64 4, ptr %10) #13
  call void @llvm.lifetime.start.p0(i64 4, ptr %11) #13
  call void @llvm.lifetime.start.p0(i64 8, ptr %12) #13
  call void @llvm.lifetime.start.p0(i64 8, ptr %13) #13
  call void @llvm.lifetime.start.p0(i64 8, ptr %14) #13
  call void @llvm.lifetime.start.p0(i64 8, ptr %15) #13
  call void @llvm.lifetime.start.p0(i64 8, ptr %16) #13
  store i64 1, ptr %16, align 8
  call void @llvm.lifetime.start.p0(i64 8, ptr %17) #13
  store i64 312, ptr %17, align 8
  call void @llvm.lifetime.start.p0(i64 8, ptr %18) #13
  %20 = load i64, ptr %17, align 8
  %21 = icmp eq i64 %20, 1
  br i1 %21, label %22, label %25

22:                                               ; preds = %3
  %23 = load i64, ptr %16, align 8
  %24 = call noalias ptr @g_malloc0(i64 noundef %23) #14
  store ptr %24, ptr %18, align 8
  br label %46

25:                                               ; preds = %3
  %26 = load i64, ptr %16, align 8
  %27 = call i1 @llvm.is.constant.i64(i64 %26)
  br i1 %27, label %28, label %41

28:                                               ; preds = %25
  %29 = load i64, ptr %17, align 8
  %30 = icmp eq i64 %29, 0
  br i1 %30, label %36, label %31

31:                                               ; preds = %28
  %32 = load i64, ptr %16, align 8
  %33 = load i64, ptr %17, align 8
  %34 = udiv i64 -1, %33
  %35 = icmp ule i64 %32, %34
  br i1 %35, label %36, label %41

36:                                               ; preds = %31, %28
  %37 = load i64, ptr %16, align 8
  %38 = load i64, ptr %17, align 8
  %39 = mul i64 %37, %38
  %40 = call noalias ptr @g_malloc0(i64 noundef %39) #14
  store ptr %40, ptr %18, align 8
  br label %45

41:                                               ; preds = %31, %25
  %42 = load i64, ptr %16, align 8
  %43 = load i64, ptr %17, align 8
  %44 = call noalias ptr @g_malloc0_n(i64 noundef %42, i64 noundef %43) #15
  store ptr %44, ptr %18, align 8
  br label %45

45:                                               ; preds = %41, %36
  br label %46

46:                                               ; preds = %45, %22
  %47 = load ptr, ptr %18, align 8
  store ptr %47, ptr %19, align 8
  call void @llvm.lifetime.end.p0(i64 8, ptr %18) #13
  call void @llvm.lifetime.end.p0(i64 8, ptr %17) #13
  call void @llvm.lifetime.end.p0(i64 8, ptr %16) #13
  %48 = load ptr, ptr %19, align 8
  store ptr %48, ptr %15, align 8
  %49 = call noalias ptr @g_malloc0(i64 noundef 65536) #14
  store ptr %49, ptr %14, align 8
  %50 = load ptr, ptr %15, align 8
  %51 = getelementptr inbounds nuw %struct.wtap_rec, ptr %50, i32 0, i32 0
  store i32 0, ptr %51, align 8
  %52 = load ptr, ptr %15, align 8
  %53 = getelementptr inbounds nuw %struct.wtap_rec, ptr %52, i32 0, i32 1
  store i32 1, ptr %53, align 4
  %54 = load ptr, ptr %4, align 8
  %55 = getelementptr inbounds nuw %struct.randpkt_example, ptr %54, i32 0, i32 3
  %56 = load i32, ptr %55, align 4
  %57 = load ptr, ptr %15, align 8
  %58 = getelementptr inbounds nuw %struct.wtap_rec, ptr %57, i32 0, i32 7
  %59 = getelementptr inbounds nuw %struct.wtap_packet_header, ptr %58, i32 0, i32 2
  store i32 %56, ptr %59, align 8
  %60 = load ptr, ptr %15, align 8
  %61 = getelementptr inbounds nuw %struct.wtap_rec, ptr %60, i32 0, i32 7
  %62 = getelementptr inbounds nuw %struct.wtap_packet_header, ptr %61, i32 0, i32 4
  store ptr %62, ptr %13, align 8
  %63 = load ptr, ptr %4, align 8
  %64 = getelementptr inbounds nuw %struct.randpkt_example, ptr %63, i32 0, i32 6
  %65 = load ptr, ptr %64, align 8
  %66 = icmp ne ptr %65, null
  br i1 %66, label %67, label %77

67:                                               ; preds = %46
  %68 = load ptr, ptr %13, align 8
  %69 = load ptr, ptr %4, align 8
  %70 = getelementptr inbounds nuw %struct.randpkt_example, ptr %69, i32 0, i32 6
  %71 = load ptr, ptr %70, align 8
  %72 = load ptr, ptr %4, align 8
  %73 = getelementptr inbounds nuw %struct.randpkt_example, ptr %72, i32 0, i32 7
  %74 = load i32, ptr %73, align 8
  %75 = zext i32 %74 to i64
  %76 = call ptr @memcpy.inline(ptr noundef %68, ptr noundef %71, i64 noundef %75) #13
  br label %77

77:                                               ; preds = %67, %46
  %78 = load ptr, ptr %4, align 8
  %79 = getelementptr inbounds nuw %struct.randpkt_example, ptr %78, i32 0, i32 4
  %80 = load ptr, ptr %79, align 8
  %81 = icmp ne ptr %80, null
  br i1 %81, label %82, label %92

82:                                               ; preds = %77
  %83 = load ptr, ptr %14, align 8
  %84 = load ptr, ptr %4, align 8
  %85 = getelementptr inbounds nuw %struct.randpkt_example, ptr %84, i32 0, i32 4
  %86 = load ptr, ptr %85, align 8
  %87 = load ptr, ptr %4, align 8
  %88 = getelementptr inbounds nuw %struct.randpkt_example, ptr %87, i32 0, i32 5
  %89 = load i32, ptr %88, align 8
  %90 = sext i32 %89 to i64
  %91 = call ptr @memcpy.inline(ptr noundef %83, ptr noundef %86, i64 noundef %90) #13
  br label %92

92:                                               ; preds = %82, %77
  store i32 0, ptr %7, align 4
  br label %93

93:                                               ; preds = %228, %92
  %94 = load i32, ptr %7, align 4
  %95 = zext i32 %94 to i64
  %96 = load i64, ptr %5, align 8
  %97 = icmp ult i64 %95, %96
  br i1 %97, label %98, label %231

98:                                               ; preds = %93
  %99 = load ptr, ptr %4, align 8
  %100 = getelementptr inbounds nuw %struct.randpkt_example, ptr %99, i32 0, i32 10
  %101 = load i32, ptr %100, align 8
  %102 = icmp ugt i32 %101, 0
  br i1 %102, label %103, label %110

103:                                              ; preds = %98
  %104 = load ptr, ptr @pkt_rand, align 8
  %105 = load ptr, ptr %4, align 8
  %106 = getelementptr inbounds nuw %struct.randpkt_example, ptr %105, i32 0, i32 10
  %107 = load i32, ptr %106, align 8
  %108 = add i32 %107, 1
  %109 = call i32 @g_rand_int_range(ptr noundef %104, i32 noundef 0, i32 noundef %108)
  store i32 %109, ptr %10, align 4
  br label %111

110:                                              ; preds = %98
  store i32 0, ptr %10, align 4
  br label %111

111:                                              ; preds = %110, %103
  %112 = load ptr, ptr %4, align 8
  %113 = getelementptr inbounds nuw %struct.randpkt_example, ptr %112, i32 0, i32 5
  %114 = load i32, ptr %113, align 8
  %115 = load i32, ptr %10, align 4
  %116 = add i32 %114, %115
  store i32 %116, ptr %11, align 4
  %117 = load i32, ptr %11, align 4
  %118 = icmp ugt i32 %117, 262144
  br i1 %118, label %119, label %120

119:                                              ; preds = %111
  store i32 262144, ptr %11, align 4
  br label %120

120:                                              ; preds = %119, %111
  %121 = load i32, ptr %11, align 4
  %122 = load ptr, ptr %15, align 8
  %123 = getelementptr inbounds nuw %struct.wtap_rec, ptr %122, i32 0, i32 7
  %124 = getelementptr inbounds nuw %struct.wtap_packet_header, ptr %123, i32 0, i32 0
  store i32 %121, ptr %124, align 8
  %125 = load i32, ptr %11, align 4
  %126 = load ptr, ptr %15, align 8
  %127 = getelementptr inbounds nuw %struct.wtap_rec, ptr %126, i32 0, i32 7
  %128 = getelementptr inbounds nuw %struct.wtap_packet_header, ptr %127, i32 0, i32 1
  store i32 %125, ptr %128, align 4
  %129 = load i32, ptr %7, align 4
  %130 = zext i32 %129 to i64
  %131 = load ptr, ptr %15, align 8
  %132 = getelementptr inbounds nuw %struct.wtap_rec, ptr %131, i32 0, i32 3
  %133 = getelementptr inbounds nuw %struct.nstime_t, ptr %132, i32 0, i32 0
  store i64 %130, ptr %133, align 8
  %134 = load ptr, ptr %4, align 8
  %135 = getelementptr inbounds nuw %struct.randpkt_example, ptr %134, i32 0, i32 7
  %136 = load i32, ptr %135, align 8
  store i32 %136, ptr %8, align 4
  br label %137

137:                                              ; preds = %148, %120
  %138 = load i32, ptr %8, align 4
  %139 = icmp ult i32 %138, 152
  br i1 %139, label %140, label %151

140:                                              ; preds = %137
  %141 = load ptr, ptr @pkt_rand, align 8
  %142 = call i32 @g_rand_int_range(ptr noundef %141, i32 noundef 0, i32 noundef 256)
  %143 = trunc i32 %142 to i8
  %144 = load ptr, ptr %13, align 8
  %145 = load i32, ptr %8, align 4
  %146 = zext i32 %145 to i64
  %147 = getelementptr i8, ptr %144, i64 %146
  store i8 %143, ptr %147, align 1
  br label %148

148:                                              ; preds = %140
  %149 = load i32, ptr %8, align 4
  %150 = add i32 %149, 1
  store i32 %150, ptr %8, align 4
  br label %137, !llvm.loop !8

151:                                              ; preds = %137
  %152 = load ptr, ptr %4, align 8
  %153 = getelementptr inbounds nuw %struct.randpkt_example, ptr %152, i32 0, i32 5
  %154 = load i32, ptr %153, align 8
  store i32 %154, ptr %8, align 4
  br label %155

155:                                              ; preds = %187, %151
  %156 = load i32, ptr %8, align 4
  %157 = load i32, ptr %11, align 4
  %158 = icmp ult i32 %156, %157
  br i1 %158, label %159, label %190

159:                                              ; preds = %155
  %160 = load ptr, ptr @pkt_rand, align 8
  %161 = call double @g_rand_double(ptr noundef %160)
  %162 = fmul double 1.000000e+02, %161
  %163 = fptosi double %162 to i32
  %164 = icmp slt i32 %163, 3
  br i1 %164, label %165, label %178

165:                                              ; preds = %159
  %166 = load i32, ptr %8, align 4
  %167 = load i32, ptr %10, align 4
  %168 = sub i32 %167, 3
  %169 = icmp ult i32 %166, %168
  br i1 %169, label %170, label %178

170:                                              ; preds = %165
  %171 = load ptr, ptr %14, align 8
  %172 = load i32, ptr %8, align 4
  %173 = zext i32 %172 to i64
  %174 = getelementptr i8, ptr %171, i64 %173
  %175 = call ptr @memcpy.inline(ptr noundef %174, ptr noundef @.str.1, i64 noundef 3) #13
  %176 = load i32, ptr %8, align 4
  %177 = add i32 %176, 2
  store i32 %177, ptr %8, align 4
  br label %186

178:                                              ; preds = %165, %159
  %179 = load ptr, ptr @pkt_rand, align 8
  %180 = call i32 @g_rand_int_range(ptr noundef %179, i32 noundef 0, i32 noundef 256)
  %181 = trunc i32 %180 to i8
  %182 = load ptr, ptr %14, align 8
  %183 = load i32, ptr %8, align 4
  %184 = zext i32 %183 to i64
  %185 = getelementptr i8, ptr %182, i64 %184
  store i8 %181, ptr %185, align 1
  br label %186

186:                                              ; preds = %178, %170
  br label %187

187:                                              ; preds = %186
  %188 = load i32, ptr %8, align 4
  %189 = add i32 %188, 1
  store i32 %189, ptr %8, align 4
  br label %155, !llvm.loop !9

190:                                              ; preds = %155
  %191 = load ptr, ptr %4, align 8
  %192 = getelementptr inbounds nuw %struct.randpkt_example, ptr %191, i32 0, i32 8
  %193 = load ptr, ptr %192, align 8
  %194 = load ptr, ptr %15, align 8
  %195 = load ptr, ptr %14, align 8
  %196 = call zeroext i1 @wtap_dump(ptr noundef %193, ptr noundef %194, ptr noundef %195, ptr noundef %9, ptr noundef %12)
  br i1 %196, label %207, label %197

197:                                              ; preds = %190
  %198 = load ptr, ptr %4, align 8
  %199 = getelementptr inbounds nuw %struct.randpkt_example, ptr %198, i32 0, i32 9
  %200 = load ptr, ptr %199, align 8
  %201 = load i32, ptr %9, align 4
  %202 = load ptr, ptr %12, align 8
  %203 = load ptr, ptr %4, align 8
  %204 = getelementptr inbounds nuw %struct.randpkt_example, ptr %203, i32 0, i32 8
  %205 = load ptr, ptr %204, align 8
  %206 = call i32 @wtap_dump_file_type_subtype(ptr noundef %205)
  call void @cfile_write_failure_message(ptr noundef null, ptr noundef %200, i32 noundef %201, ptr noundef %202, i64 noundef 0, i32 noundef %206)
  br label %207

207:                                              ; preds = %197, %190
  %208 = load i64, ptr %6, align 8
  %209 = icmp ne i64 %208, 0
  br i1 %209, label %210, label %227

210:                                              ; preds = %207
  %211 = load i64, ptr %6, align 8
  %212 = mul i64 1000, %211
  call void @g_usleep(i64 noundef %212)
  %213 = load ptr, ptr %4, align 8
  %214 = getelementptr inbounds nuw %struct.randpkt_example, ptr %213, i32 0, i32 8
  %215 = load ptr, ptr %214, align 8
  %216 = call zeroext i1 @wtap_dump_flush(ptr noundef %215, ptr noundef %9)
  br i1 %216, label %226, label %217

217:                                              ; preds = %210
  %218 = load ptr, ptr %4, align 8
  %219 = getelementptr inbounds nuw %struct.randpkt_example, ptr %218, i32 0, i32 9
  %220 = load ptr, ptr %219, align 8
  %221 = load i32, ptr %9, align 4
  %222 = load ptr, ptr %4, align 8
  %223 = getelementptr inbounds nuw %struct.randpkt_example, ptr %222, i32 0, i32 8
  %224 = load ptr, ptr %223, align 8
  %225 = call i32 @wtap_dump_file_type_subtype(ptr noundef %224)
  call void @cfile_write_failure_message(ptr noundef null, ptr noundef %220, i32 noundef %221, ptr noundef null, i64 noundef 0, i32 noundef %225)
  br label %226

226:                                              ; preds = %217, %210
  br label %227

227:                                              ; preds = %226, %207
  br label %228

228:                                              ; preds = %227
  %229 = load i32, ptr %7, align 4
  %230 = add i32 %229, 1
  store i32 %230, ptr %7, align 4
  br label %93, !llvm.loop !10

231:                                              ; preds = %93
  %232 = load ptr, ptr %15, align 8
  call void @g_free(ptr noundef %232)
  %233 = load ptr, ptr %14, align 8
  call void @g_free(ptr noundef %233)
  call void @llvm.lifetime.end.p0(i64 8, ptr %15) #13
  call void @llvm.lifetime.end.p0(i64 8, ptr %14) #13
  call void @llvm.lifetime.end.p0(i64 8, ptr %13) #13
  call void @llvm.lifetime.end.p0(i64 8, ptr %12) #13
  call void @llvm.lifetime.end.p0(i64 4, ptr %11) #13
  call void @llvm.lifetime.end.p0(i64 4, ptr %10) #13
  call void @llvm.lifetime.end.p0(i64 4, ptr %9) #13
  call void @llvm.lifetime.end.p0(i64 4, ptr %8) #13
  call void @llvm.lifetime.end.p0(i64 4, ptr %7) #13
  ret void
}