; Function Attrs: null_pointer_is_valid sspstrong uwtable
define hidden void @randpkt_loop(ptr noundef readonly captures(none) %0, i64 noundef %1, i64 noundef %2) local_unnamed_addr #1 {
  %4 = alloca i32, align 4
  %5 = alloca ptr, align 8
  call void @llvm.lifetime.start.p0(i64 4, ptr nonnull %4) #10
  call void @llvm.lifetime.start.p0(i64 8, ptr nonnull %5) #10
  %6 = tail call noalias dereferenceable_or_null(312) ptr @g_malloc0(i64 noundef 312) #11
  %7 = tail call noalias dereferenceable_or_null(65536) ptr @g_malloc0(i64 noundef 65536) #11
  store i32 0, ptr %6, align 8
  %8 = getelementptr inbounds nuw i8, ptr %6, i64 4
  store i32 1, ptr %8, align 4
  %9 = getelementptr inbounds nuw i8, ptr %0, i64 20
  %10 = load i32, ptr %9, align 4
  %11 = getelementptr inbounds nuw i8, ptr %6, i64 64
  %12 = getelementptr inbounds nuw i8, ptr %6, i64 72
  store i32 %10, ptr %12, align 8
  %13 = getelementptr inbounds nuw i8, ptr %6, i64 80
  %14 = getelementptr inbounds nuw i8, ptr %0, i64 40
  %15 = load ptr, ptr %14, align 8
  %.not = icmp eq ptr %15, null
  br i1 %.not, label %21, label %16

16:                                               ; preds = %3
  %17 = getelementptr inbounds nuw i8, ptr %0, i64 48
  %18 = load i32, ptr %17, align 8
  %19 = zext i32 %18 to i64
  %20 = tail call ptr @__memcpy_chk(ptr noundef nonnull %13, ptr noundef nonnull %15, i64 noundef range(i64 -2147483648, 4294967296) %19, i64 noundef 232) #10, !alias.scope !8
  br label %21

21:                                               ; preds = %16, %3
  %22 = getelementptr inbounds nuw i8, ptr %0, i64 24
  %23 = load ptr, ptr %22, align 8
  %.not74 = icmp eq ptr %23, null
  br i1 %.not74, label %29, label %24

24:                                               ; preds = %21
  %25 = getelementptr inbounds nuw i8, ptr %0, i64 32
  %26 = load i32, ptr %25, align 8
  %27 = sext i32 %26 to i64
  %28 = tail call ptr @__memcpy_chk(ptr noundef %7, ptr noundef nonnull %23, i64 noundef range(i64 -2147483648, 4294967296) %27, i64 noundef 65536) #10, !alias.scope !12
  br label %29

29:                                               ; preds = %24, %21
  %.not87 = icmp eq i64 %1, 0
  br i1 %.not87, label %._crit_edge86, label %.lr.ph85

.lr.ph85:                                         ; preds = %29
  %30 = getelementptr inbounds nuw i8, ptr %0, i64 72
  %31 = getelementptr inbounds nuw i8, ptr %0, i64 32
  %32 = getelementptr inbounds nuw i8, ptr %6, i64 68
  %33 = getelementptr inbounds nuw i8, ptr %6, i64 16
  %34 = getelementptr inbounds nuw i8, ptr %0, i64 48
  %35 = getelementptr inbounds nuw i8, ptr %0, i64 56
  %36 = getelementptr inbounds nuw i8, ptr %0, i64 64
  %.not76 = icmp eq i64 %2, 0
  %37 = mul i64 %2, 1000
  br label %38

38:                                               ; preds = %.lr.ph85, %101
  %39 = phi i64 [ 0, %.lr.ph85 ], [ %103, %101 ]
  %.083 = phi i32 [ 0, %.lr.ph85 ], [ %102, %101 ]
  %40 = load i32, ptr %30, align 8
  %.not75 = icmp eq i32 %40, 0
  br i1 %.not75, label %45, label %41

41:                                               ; preds = %38
  %42 = load ptr, ptr @pkt_rand, align 8
  %43 = add i32 %40, 1
  %44 = call i32 @g_rand_int_range(ptr noundef %42, i32 noundef 0, i32 noundef %43)
  br label %45

45:                                               ; preds = %38, %41
  %.068 = phi i32 [ %44, %41 ], [ 0, %38 ]
  %46 = load i32, ptr %31, align 8
  %47 = add i32 %46, %.068
  %spec.store.select = call i32 @llvm.umin.i32(i32 %47, i32 262144)
  store i32 %spec.store.select, ptr %11, align 8
  store i32 %spec.store.select, ptr %32, align 4
  store i64 %39, ptr %33, align 8
  %48 = load i32, ptr %34, align 8
  %49 = icmp ult i32 %48, 152
  br i1 %49, label %.lr.ph.preheader, label %._crit_edge

.lr.ph.preheader:                                 ; preds = %45
  %50 = zext nneg i32 %48 to i64
  br label %.lr.ph

.lr.ph:                                           ; preds = %.lr.ph.preheader, %.lr.ph
  %indvars.iv = phi i64 [ %50, %.lr.ph.preheader ], [ %indvars.iv.next, %.lr.ph ]
  %51 = load ptr, ptr @pkt_rand, align 8
  %52 = call i32 @g_rand_int_range(ptr noundef %51, i32 noundef 0, i32 noundef 256)
  %53 = trunc i32 %52 to i8
  %54 = getelementptr i8, ptr %13, i64 %indvars.iv
  store i8 %53, ptr %54, align 1
  %indvars.iv.next = add nuw nsw i64 %indvars.iv, 1
  %55 = and i64 %indvars.iv.next, 4294967295
  %exitcond.not = icmp eq i64 %55, 152
  br i1 %exitcond.not, label %._crit_edge.loopexit, label %.lr.ph, !llvm.loop !16

._crit_edge.loopexit:                             ; preds = %.lr.ph
  %.pre = load i32, ptr %31, align 8
  br label %._crit_edge

._crit_edge:                                      ; preds = %._crit_edge.loopexit, %45
  %56 = phi i32 [ %.pre, %._crit_edge.loopexit ], [ %46, %45 ]
  %57 = icmp ult i32 %56, %spec.store.select
  br i1 %57, label %.lr.ph81, label %._crit_edge82

.lr.ph81:                                         ; preds = %._crit_edge
  %58 = add i32 %.068, -3
  br label %59

59:                                               ; preds = %.lr.ph81, %81
  %.179 = phi i32 [ %56, %.lr.ph81 ], [ %82, %81 ]
  %60 = load ptr, ptr @pkt_rand, align 8
  %61 = call double @g_rand_double(ptr noundef %60)
  %62 = fmul double %61, 1.000000e+02
  %63 = fptosi double %62 to i32
  %64 = icmp slt i32 %63, 3
  %65 = icmp ult i32 %.179, %58
  %or.cond = select i1 %64, i1 %65, i1 false
  br i1 %or.cond, label %66, label %75

66:                                               ; preds = %59
  %67 = zext i32 %.179 to i64
  %68 = getelementptr i8, ptr %7, i64 %67
  %69 = sub nsw i64 65536, %67
  %70 = icmp ugt i32 %.179, 65536
  %71 = select i1 %70, i64 0, i64 %69
  %72 = icmp ne i64 %71, -1
  call void @llvm.assume(i1 %72)
  %73 = call ptr @__memcpy_chk(ptr noundef %68, ptr noundef nonnull @.str.1, i64 noundef 3, i64 noundef %71) #10, !alias.scope !17
  %74 = add i32 %.179, 2
  br label %81

75:                                               ; preds = %59
  %76 = load ptr, ptr @pkt_rand, align 8
  %77 = call i32 @g_rand_int_range(ptr noundef %76, i32 noundef 0, i32 noundef 256)
  %78 = trunc i32 %77 to i8
  %79 = zext i32 %.179 to i64
  %80 = getelementptr i8, ptr %7, i64 %79
  store i8 %78, ptr %80, align 1
  br label %81

81:                                               ; preds = %66, %75
  %.2 = phi i32 [ %74, %66 ], [ %.179, %75 ]
  %82 = add i32 %.2, 1
  %83 = icmp ult i32 %82, %spec.store.select
  br i1 %83, label %59, label %._crit_edge82, !llvm.loop !21

._crit_edge82:                                    ; preds = %81, %._crit_edge
  %84 = load ptr, ptr %35, align 8
  %85 = call zeroext i1 @wtap_dump(ptr noundef %84, ptr noundef %6, ptr noundef %7, ptr noundef nonnull %4, ptr noundef nonnull %5)
  br i1 %85, label %92, label %86

86:                                               ; preds = %._crit_edge82
  %87 = load ptr, ptr %36, align 8
  %88 = load i32, ptr %4, align 4
  %89 = load ptr, ptr %5, align 8
  %90 = load ptr, ptr %35, align 8
  %91 = call i32 @wtap_dump_file_type_subtype(ptr noundef %90)
  call void @cfile_write_failure_message(ptr noundef null, ptr noundef %87, i32 noundef %88, ptr noundef %89, i64 noundef 0, i32 noundef %91)
  br label %92

92:                                               ; preds = %86, %._crit_edge82
  br i1 %.not76, label %101, label %93

93:                                               ; preds = %92
  call void @g_usleep(i64 noundef %37)
  %94 = load ptr, ptr %35, align 8
  %95 = call zeroext i1 @wtap_dump_flush(ptr noundef %94, ptr noundef nonnull %4)
  br i1 %95, label %101, label %96

96:                                               ; preds = %93
  %97 = load ptr, ptr %36, align 8
  %98 = load i32, ptr %4, align 4
  %99 = load ptr, ptr %35, align 8
  %100 = call i32 @wtap_dump_file_type_subtype(ptr noundef %99)
  call void @cfile_write_failure_message(ptr noundef null, ptr noundef %97, i32 noundef %98, ptr noundef null, i64 noundef 0, i32 noundef %100)
  br label %101

101:                                              ; preds = %92, %96, %93
  %102 = add i32 %.083, 1
  %103 = zext i32 %102 to i64
  %104 = icmp ugt i64 %1, %103
  br i1 %104, label %38, label %._crit_edge86, !llvm.loop !22

._crit_edge86:                                    ; preds = %101, %29
  call void @g_free(ptr noundef %6)
  call void @g_free(ptr noundef %7)
  call void @llvm.lifetime.end.p0(i64 8, ptr nonnull %5) #10
  call void @llvm.lifetime.end.p0(i64 4, ptr nonnull %4) #10
  ret void
}